target datalayout = "e-m:e-p270:32:32-p271:32:32-p272:64:64-i64:64-i128:128-f80:128-n8:16:32:64-S128"
target triple = "x86_64-pc-linux-gnu"

%struct.except_id_t = type { i64, i64 }
%struct.except_stacknode = type { ptr, i32, %union.anon }
%union.anon = type { ptr }
%struct.except_catch = type { ptr, i64, %struct.except_t, [1 x %struct.__jmp_buf_tag] }
%struct.except_t = type { %struct.except_id_t, ptr, ptr }
%struct.__jmp_buf_tag = type { [8 x i64], i32, %struct.__sigset_t }
%struct.__sigset_t = type { [16 x i64] }
%struct._scsi_task_data = type { i32, ptr, ptr }
%struct._itlq_nexus_t = type { i32, i32, i16, i16, i16, i16, i32, i32, i32, %struct.nstime_t, %struct.nstime_t, ptr }
%struct.nstime_t = type { i64, i32 }

@cdb_control_fields = hidden constant [6 x ptr] [ptr @hf_scsi_control_vendor_specific, ptr @hf_scsi_control_reserved, ptr @hf_scsi_control_naca, ptr @hf_scsi_control_obs1, ptr @hf_scsi_control_obs2, ptr null], align 16
@hf_scsi_control = hidden global i32 0, align 4
@ett_scsi_control = hidden global i32 0, align 4
@hf_scsi_alloclen32 = internal global i32 0, align 4
@hf_scsi_select_report = internal global i32 0, align 4
@dissect_spc_reportluns.catch_spec = internal constant [1 x %struct.except_id_t] [%struct.except_id_t { i64 1, i64 0 }], align 16
@hf_scsi_reportluns_lun_list_length = internal global i32 0, align 4

; Function Attrs: nounwind uwtable
define hidden void @dissect_spc_reportluns(ptr noundef %0, ptr noundef %1, ptr noundef %2, i32 noundef %3, i32 noundef %4, i32 noundef %5, i32 noundef %6, ptr noundef %7) #0 {
  %9 = alloca ptr, align 8
  %10 = alloca ptr, align 8
  %11 = alloca ptr, align 8
  %12 = alloca i32, align 4
  %13 = alloca i32, align 4
  %14 = alloca i32, align 4
  %15 = alloca i32, align 4
  %16 = alloca ptr, align 8
  %17 = alloca i32, align 4
  %18 = alloca ptr, align 8
  %19 = alloca i32, align 4
  %20 = alloca i32, align 4
  %21 = alloca ptr, align 8
  %22 = alloca i32, align 4
  %23 = alloca %struct.except_stacknode, align 8
  %24 = alloca %struct.except_catch, align 8
  store ptr %0, ptr %9, align 8
  store ptr %1, ptr %10, align 8
  store ptr %2, ptr %11, align 8
  store i32 %3, ptr %12, align 4
  store i32 %4, ptr %13, align 4
  store i32 %5, ptr %14, align 4
  store i32 %6, ptr %15, align 4
  store ptr %7, ptr %16, align 8
  %25 = load i32, ptr %13, align 4
  %26 = icmp ne i32 %25, 0
  br i1 %26, label %27, label %62

27:                                               ; preds = %8
  %28 = load i32, ptr %14, align 4
  %29 = icmp ne i32 %28, 0
  br i1 %29, label %30, label %62

30:                                               ; preds = %27
  %31 = load ptr, ptr %11, align 8
  %32 = load i32, ptr @hf_scsi_select_report, align 4
  %33 = load ptr, ptr %9, align 8
  %34 = load i32, ptr %12, align 4
  %35 = add i32 %34, 1
  %36 = call ptr @proto_tree_add_item(ptr noundef %31, i32 noundef %32, ptr noundef %33, i32 noundef %35, i32 noundef 1, i32 noundef 0)
  %37 = load ptr, ptr %11, align 8
  %38 = load i32, ptr @hf_scsi_alloclen32, align 4
  %39 = load ptr, ptr %9, align 8
  %40 = load i32, ptr %12, align 4
  %41 = add i32 %40, 5
  %42 = call ptr @proto_tree_add_item(ptr noundef %37, i32 noundef %38, ptr noundef %39, i32 noundef %41, i32 noundef 4, i32 noundef 0)
  %43 = load ptr, ptr %16, align 8
  %44 = icmp ne ptr %43, null
  br i1 %44, label %45, label %54

45:                                               ; preds = %30
  %46 = load ptr, ptr %9, align 8
  %47 = load i32, ptr %12, align 4
  %48 = add i32 %47, 5
  %49 = call i32 @tvb_get_ntohl(ptr noundef %46, i32 noundef %48)
  %50 = load ptr, ptr %16, align 8
  %51 = getelementptr inbounds %struct._scsi_task_data, ptr %50, i32 0, i32 1
  %52 = load ptr, ptr %51, align 8
  %53 = getelementptr inbounds %struct._itlq_nexus_t, ptr %52, i32 0, i32 8
  store i32 %49, ptr %53, align 8
  br label %54

54:                                               ; preds = %45, %30
  %55 = load ptr, ptr %11, align 8
  %56 = load ptr, ptr %9, align 8
  %57 = load i32, ptr %12, align 4
  %58 = add i32 %57, 10
  %59 = load i32, ptr @hf_scsi_control, align 4
  %60 = load i32, ptr @ett_scsi_control, align 4
  %61 = call ptr @proto_tree_add_bitmask(ptr noundef %55, ptr noundef %56, i32 noundef %58, i32 noundef %59, i32 noundef %60, ptr noundef @cdb_control_fields, i32 noundef 0)
  br label %200

62:                                               ; preds = %27, %8
  %63 = load i32, ptr %13, align 4
  %64 = icmp ne i32 %63, 0
  br i1 %64, label %199, label %65

65:                                               ; preds = %62
  %66 = load ptr, ptr %16, align 8
  %67 = icmp ne ptr %66, null
  br i1 %67, label %69, label %68

68:                                               ; preds = %65
  br label %200

69:                                               ; preds = %65
  store i32 0, ptr %20, align 4
  %70 = load ptr, ptr %9, align 8
  %71 = load i32, ptr %12, align 4
  %72 = load ptr, ptr %16, align 8
  %73 = getelementptr inbounds %struct._scsi_task_data, ptr %72, i32 0, i32 1
  %74 = load ptr, ptr %73, align 8
  %75 = getelementptr inbounds %struct._itlq_nexus_t, ptr %74, i32 0, i32 8
  %76 = load i32, ptr %75, align 8
  %77 = call ptr @tvb_new_subset_length(ptr noundef %70, i32 noundef %71, i32 noundef %76)
  store ptr %77, ptr %18, align 8
  store volatile i32 0, ptr %19, align 4
  store volatile i32 0, ptr %22, align 4
  call void @except_setup_try(ptr noundef %23, ptr noundef %24, ptr noundef @dissect_spc_reportluns.catch_spec, i64 noundef 1)
  %78 = getelementptr inbounds %struct.except_catch, ptr %24, i32 0, i32 3
  %79 = getelementptr inbounds [1 x %struct.__jmp_buf_tag], ptr %78, i64 0, i64 0
  %80 = call i32 @_setjmp(ptr noundef %79) #9
  %81 = icmp ne i32 %80, 0
  br i1 %81, label %82, label %84

82:                                               ; preds = %69
  %83 = getelementptr inbounds %struct.except_catch, ptr %24, i32 0, i32 2
  store volatile ptr %83, ptr %21, align 8
  br label %85

84:                                               ; preds = %69
  store volatile ptr null, ptr %21, align 8
  br label %85

85:                                               ; preds = %84, %82
  %86 = load volatile i32, ptr %22, align 4
  %87 = and i32 %86, 1
  %88 = icmp ne i32 %87, 0
  br i1 %88, label %89, label %92

89:                                               ; preds = %85
  %90 = load volatile i32, ptr %22, align 4
  %91 = or i32 %90, 2
  store volatile i32 %91, ptr %22, align 4
  br label %92

92:                                               ; preds = %89, %85
  %93 = load volatile i32, ptr %22, align 4
  %94 = and i32 %93, -2
  store volatile i32 %94, ptr %22, align 4
  %95 = load volatile i32, ptr %22, align 4
  %96 = icmp eq i32 %95, 0
  br i1 %96, label %97, label %130

97:                                               ; preds = %92
  %98 = load volatile ptr, ptr %21, align 8
  %99 = icmp eq ptr %98, null
  br i1 %99, label %100, label %130

100:                                              ; preds = %97
  %101 = load ptr, ptr %18, align 8
  %102 = load volatile i32, ptr %19, align 4
  %103 = call i32 @tvb_get_ntohl(ptr noundef %101, i32 noundef %102)
  store i32 %103, ptr %17, align 4
  %104 = load ptr, ptr %11, align 8
  %105 = load i32, ptr @hf_scsi_reportluns_lun_list_length, align 4
  %106 = load ptr, ptr %18, align 8
  %107 = load volatile i32, ptr %19, align 4
  %108 = call ptr @proto_tree_add_item(ptr noundef %104, i32 noundef %105, ptr noundef %106, i32 noundef %107, i32 noundef 4, i32 noundef 0)
  %109 = load volatile i32, ptr %19, align 4
  %110 = add i32 %109, 8
  store volatile i32 %110, ptr %19, align 4
  br label %111

111:                                              ; preds = %114, %100
  %112 = load i32, ptr %17, align 4
  %113 = icmp sgt i32 %112, 0
  br i1 %113, label %114, label %122

114:                                              ; preds = %111
  %115 = load ptr, ptr %11, align 8
  %116 = load ptr, ptr %18, align 8
  %117 = load volatile i32, ptr %19, align 4
  call void @dissect_scsi_lun(ptr noundef %115, ptr noundef %116, i32 noundef %117)
  %118 = load volatile i32, ptr %19, align 4
  %119 = add i32 %118, 8
  store volatile i32 %119, ptr %19, align 4
  %120 = load i32, ptr %17, align 4
  %121 = sub i32 %120, 8
  store i32 %121, ptr %17, align 4
  br label %111, !llvm.loop !21

122:                                              ; preds = %111
  %123 = load i32, ptr %20, align 4
  %124 = icmp ne i32 %123, 0
  br i1 %124, label %125, label %129

125:                                              ; preds = %122
  %126 = load ptr, ptr %18, align 8
  %127 = load i32, ptr %20, align 4
  %128 = call zeroext i8 @tvb_get_guint8(ptr noundef %126, i32 noundef %127)
  br label %129

129:                                              ; preds = %125, %122
  br label %130

130:                                              ; preds = %129, %97, %92
  %131 = load volatile i32, ptr %22, align 4
  %132 = icmp eq i32 %131, 0
  br i1 %132, label %133, label %151

133:                                              ; preds = %130
  %134 = load volatile ptr, ptr %21, align 8
  %135 = icmp ne ptr %134, null
  br i1 %135, label %136, label %151

136:                                              ; preds = %133
  %137 = load volatile ptr, ptr %21, align 8
  %138 = getelementptr inbounds %struct.except_t, ptr %137, i32 0, i32 0
  %139 = getelementptr inbounds %struct.except_id_t, ptr %138, i32 0, i32 1
  %140 = load volatile i64, ptr %139, align 8
  %141 = icmp eq i64 %140, 1
  br i1 %141, label %142, label %151

142:                                              ; preds = %136
  %143 = load volatile i32, ptr %22, align 4
  %144 = or i32 %143, 1
  store volatile i32 %144, ptr %22, align 4
  %145 = icmp ne i32 %144, 0
  br i1 %145, label %146, label %151

146:                                              ; preds = %142
  br label %147

147:                                              ; preds = %146
  br label %148

148:                                              ; preds = %147
  %149 = getelementptr inbounds %struct.except_catch, ptr %24, i32 0, i32 3
  %150 = getelementptr inbounds [1 x %struct.__jmp_buf_tag], ptr %149, i64 0, i64 0
  call void @longjmp(ptr noundef %150, i32 noundef 1) #10
  unreachable

151:                                              ; preds = %142, %136, %133, %130
  %152 = load volatile i32, ptr %22, align 4
  %153 = icmp eq i32 %152, 0
  br i1 %153, label %154, label %168

154:                                              ; preds = %151
  %155 = load volatile ptr, ptr %21, align 8
  %156 = icmp ne ptr %155, null
  br i1 %156, label %157, label %168

157:                                              ; preds = %154
  %158 = load volatile ptr, ptr %21, align 8
  %159 = getelementptr inbounds %struct.except_t, ptr %158, i32 0, i32 0
  %160 = getelementptr inbounds %struct.except_id_t, ptr %159, i32 0, i32 1
  %161 = load volatile i64, ptr %160, align 8
  %162 = icmp eq i64 %161, 2
  br i1 %162, label %163, label %168

163:                                              ; preds = %157
  %164 = load volatile i32, ptr %22, align 4
  %165 = or i32 %164, 1
  store volatile i32 %165, ptr %22, align 4
  %166 = icmp ne i32 %165, 0
  br i1 %166, label %167, label %168

167:                                              ; preds = %163
  br label %168

168:                                              ; preds = %167, %163, %157, %154, %151
  %169 = load volatile i32, ptr %22, align 4
  %170 = icmp eq i32 %169, 0
  br i1 %170, label %171, label %185

171:                                              ; preds = %168
  %172 = load volatile ptr, ptr %21, align 8
  %173 = icmp ne ptr %172, null
  br i1 %173, label %174, label %185

174:                                              ; preds = %171
  %175 = load volatile ptr, ptr %21, align 8
  %176 = getelementptr inbounds %struct.except_t, ptr %175, i32 0, i32 0
  %177 = getelementptr inbounds %struct.except_id_t, ptr %176, i32 0, i32 1
  %178 = load volatile i64, ptr %177, align 8
  %179 = icmp eq i64 %178, 3
  br i1 %179, label %180, label %185

180:                                              ; preds = %174
  %181 = load volatile i32, ptr %22, align 4
  %182 = or i32 %181, 1
  store volatile i32 %182, ptr %22, align 4
  %183 = icmp ne i32 %182, 0
  br i1 %183, label %184, label %185

184:                                              ; preds = %180
  call void @except_throw(i64 noundef 1, i64 noundef 7, ptr noundef null) #11
  unreachable

185:                                              ; preds = %180, %174, %171, %168
  %186 = load volatile i32, ptr %22, align 4
  %187 = and i32 %186, 1
  %188 = icmp ne i32 %187, 0
  br i1 %188, label %194, label %189

189:                                              ; preds = %185
  %190 = load volatile ptr, ptr %21, align 8
  %191 = icmp ne ptr %190, null
  br i1 %191, label %192, label %194

192:                                              ; preds = %189
  %193 = load volatile ptr, ptr %21, align 8
  call void @except_rethrow(ptr noundef %193) #11
  unreachable

194:                                              ; preds = %189, %185
  %195 = getelementptr inbounds %struct.except_catch, ptr %24, i32 0, i32 2
  %196 = getelementptr inbounds %struct.except_t, ptr %195, i32 0, i32 2
  %197 = load volatile ptr, ptr %196, align 8
  call void @except_free(ptr noundef %197)
  %198 = call ptr @except_pop()
  br label %199

199:                                              ; preds = %194, %62
  br label %200

200:                                              ; preds = %199, %68, %54
  ret void
}