; Function Attrs: nounwind uwtable
define hidden void @dissect_spc_reportluns(ptr noundef %0, ptr readnone captures(none) %1, ptr noundef %2, i32 noundef %3, i32 noundef %4, i32 noundef %5, i32 %6, ptr noundef readonly %7) #0 {
  %9 = alloca i32, align 4
  %10 = alloca ptr, align 8
  %11 = alloca i32, align 4
  %12 = alloca %struct.except_stacknode, align 8
  %13 = alloca %struct.except_catch, align 8
  %14 = icmp ne i32 %4, 0
  %15 = icmp ne i32 %5, 0
  %or.cond = and i1 %14, %15
  br i1 %or.cond, label %16, label %33

16:                                               ; preds = %8
  %17 = load i32, ptr @hf_scsi_select_report, align 4
  %18 = add i32 %3, 1
  %19 = call ptr @proto_tree_add_item(ptr noundef %2, i32 noundef %17, ptr noundef %0, i32 noundef %18, i32 noundef 1, i32 noundef 0) #10
  %20 = load i32, ptr @hf_scsi_alloclen32, align 4
  %21 = add i32 %3, 5
  %22 = call ptr @proto_tree_add_item(ptr noundef %2, i32 noundef %20, ptr noundef %0, i32 noundef %21, i32 noundef 4, i32 noundef 0) #10
  %.not64 = icmp eq ptr %7, null
  br i1 %.not64, label %28, label %23

23:                                               ; preds = %16
  %24 = call i32 @tvb_get_ntohl(ptr noundef %0, i32 noundef %21) #10
  %25 = getelementptr inbounds nuw i8, ptr %7, i64 8
  %26 = load ptr, ptr %25, align 8
  %27 = getelementptr inbounds nuw i8, ptr %26, i64 24
  store i32 %24, ptr %27, align 8
  br label %28

28:                                               ; preds = %23, %16
  %29 = add i32 %3, 10
  %30 = load i32, ptr @hf_scsi_control, align 4
  %31 = load i32, ptr @ett_scsi_control, align 4
  %32 = call ptr @proto_tree_add_bitmask(ptr noundef %2, ptr noundef %0, i32 noundef %29, i32 noundef %30, i32 noundef %31, ptr noundef nonnull @cdb_control_fields, i32 noundef 0) #10
  br label %96

33:                                               ; preds = %8
  %34 = icmp eq i32 %4, 0
  %35 = icmp ne ptr %7, null
  %or.cond3 = and i1 %34, %35
  br i1 %or.cond3, label %36, label %96

36:                                               ; preds = %33
  %37 = getelementptr inbounds nuw i8, ptr %7, i64 8
  %38 = load ptr, ptr %37, align 8
  %39 = getelementptr inbounds nuw i8, ptr %38, i64 24
  %40 = load i32, ptr %39, align 8
  %41 = call ptr @tvb_new_subset_length(ptr noundef %0, i32 noundef %3, i32 noundef %40) #10
  store volatile i32 0, ptr %9, align 4
  store volatile i32 0, ptr %11, align 4
  call void @except_setup_try(ptr noundef nonnull %12, ptr noundef nonnull %13, ptr noundef nonnull @dissect_spc_reportluns.catch_spec, i64 noundef 1) #10
  %42 = getelementptr inbounds nuw i8, ptr %13, i64 48
  %43 = call i32 @_setjmp(ptr noundef nonnull %42) #12
  %.not = icmp eq i32 %43, 0
  %44 = getelementptr inbounds nuw i8, ptr %13, i64 16
  %.sink = select i1 %.not, ptr null, ptr %44
  store volatile ptr %.sink, ptr %10, align 8
  %.0..0..0..0. = load volatile i32, ptr %11, align 4
  %45 = and i32 %.0..0..0..0., 1
  %.not58 = icmp eq i32 %45, 0
  br i1 %.not58, label %48, label %46

46:                                               ; preds = %36
  %.0..0..0..0.4 = load volatile i32, ptr %11, align 4
  %47 = or i32 %.0..0..0..0.4, 2
  store volatile i32 %47, ptr %11, align 4
  br label %48

48:                                               ; preds = %46, %36
  %.0..0..0..0.5 = load volatile i32, ptr %11, align 4
  %49 = and i32 %.0..0..0..0.5, -2
  store volatile i32 %49, ptr %11, align 4
  %.0..0..0..0.6 = load volatile i32, ptr %11, align 4
  %50 = icmp eq i32 %.0..0..0..0.6, 0
  br i1 %50, label %51, label %.loopexit

51:                                               ; preds = %48
  %.0..0..0..0.14 = load volatile ptr, ptr %10, align 8
  %52 = icmp eq ptr %.0..0..0..0.14, null
  br i1 %52, label %53, label %.loopexit

53:                                               ; preds = %51
  %.0..0..0..0.24 = load volatile i32, ptr %9, align 4
  %54 = call i32 @tvb_get_ntohl(ptr noundef %41, i32 noundef %.0..0..0..0.24) #10
  %55 = load i32, ptr @hf_scsi_reportluns_lun_list_length, align 4
  %.0..0..0..0.25 = load volatile i32, ptr %9, align 4
  %56 = call ptr @proto_tree_add_item(ptr noundef %2, i32 noundef %55, ptr noundef %41, i32 noundef %.0..0..0..0.25, i32 noundef 4, i32 noundef 0) #10
  %.0..0..0..0.26 = load volatile i32, ptr %9, align 4
  %57 = add i32 %.0..0..0..0.26, 8
  store volatile i32 %57, ptr %9, align 4
  %58 = icmp sgt i32 %54, 0
  br i1 %58, label %.lr.ph, label %.loopexit

.lr.ph:                                           ; preds = %53, %.lr.ph
  %.065 = phi i32 [ %60, %.lr.ph ], [ %54, %53 ]
  %.0..0..0..0.27 = load volatile i32, ptr %9, align 4
  call void @dissect_scsi_lun(ptr noundef %2, ptr noundef %41, i32 noundef %.0..0..0..0.27)
  %.0..0..0..0.28 = load volatile i32, ptr %9, align 4
  %59 = add i32 %.0..0..0..0.28, 8
  store volatile i32 %59, ptr %9, align 4
  %60 = add nsw i32 %.065, -8
  %61 = icmp samesign ugt i32 %.065, 8
  br i1 %61, label %.lr.ph, label %.loopexit, !llvm.loop !20

.loopexit:                                        ; preds = %.lr.ph, %53, %51, %48
  %.0..0..0..0.7 = load volatile i32, ptr %11, align 4
  %62 = icmp eq i32 %.0..0..0..0.7, 0
  br i1 %62, label %63, label %70

63:                                               ; preds = %.loopexit
  %.0..0..0..0.15 = load volatile ptr, ptr %10, align 8
  %.not59 = icmp eq ptr %.0..0..0..0.15, null
  br i1 %.not59, label %70, label %64

64:                                               ; preds = %63
  %.0..0..0..0.16 = load volatile ptr, ptr %10, align 8
  %65 = getelementptr inbounds nuw i8, ptr %.0..0..0..0.16, i64 8
  %66 = load volatile i64, ptr %65, align 8
  %67 = icmp eq i64 %66, 1
  br i1 %67, label %68, label %70

68:                                               ; preds = %64
  %.0..0..0..0.8 = load volatile i32, ptr %11, align 4
  %69 = or i32 %.0..0..0..0.8, 1
  store volatile i32 %69, ptr %11, align 4
  call void @longjmp(ptr noundef nonnull %42, i32 noundef 1) #13
  unreachable

70:                                               ; preds = %64, %63, %.loopexit
  %.0..0..0..0.9 = load volatile i32, ptr %11, align 4
  %71 = icmp eq i32 %.0..0..0..0.9, 0
  br i1 %71, label %72, label %79

72:                                               ; preds = %70
  %.0..0..0..0.17 = load volatile ptr, ptr %10, align 8
  %.not60 = icmp eq ptr %.0..0..0..0.17, null
  br i1 %.not60, label %79, label %73

73:                                               ; preds = %72
  %.0..0..0..0.18 = load volatile ptr, ptr %10, align 8
  %74 = getelementptr inbounds nuw i8, ptr %.0..0..0..0.18, i64 8
  %75 = load volatile i64, ptr %74, align 8
  %76 = icmp eq i64 %75, 2
  br i1 %76, label %77, label %79

77:                                               ; preds = %73
  %.0..0..0..0.10 = load volatile i32, ptr %11, align 4
  %78 = or i32 %.0..0..0..0.10, 1
  store volatile i32 %78, ptr %11, align 4
  br label %79

79:                                               ; preds = %77, %73, %72, %70
  %.0..0..0..0.11 = load volatile i32, ptr %11, align 4
  %80 = icmp eq i32 %.0..0..0..0.11, 0
  br i1 %80, label %81, label %88

81:                                               ; preds = %79
  %.0..0..0..0.19 = load volatile ptr, ptr %10, align 8
  %.not61 = icmp eq ptr %.0..0..0..0.19, null
  br i1 %.not61, label %88, label %82

82:                                               ; preds = %81
  %.0..0..0..0.20 = load volatile ptr, ptr %10, align 8
  %83 = getelementptr inbounds nuw i8, ptr %.0..0..0..0.20, i64 8
  %84 = load volatile i64, ptr %83, align 8
  %85 = icmp eq i64 %84, 3
  br i1 %85, label %86, label %88

86:                                               ; preds = %82
  %.0..0..0..0.12 = load volatile i32, ptr %11, align 4
  %87 = or i32 %.0..0..0..0.12, 1
  store volatile i32 %87, ptr %11, align 4
  call void @except_throw(i64 noundef 1, i64 noundef 7, ptr noundef null) #13
  unreachable

88:                                               ; preds = %82, %81, %79
  %.0..0..0..0.13 = load volatile i32, ptr %11, align 4
  %89 = and i32 %.0..0..0..0.13, 1
  %.not62 = icmp eq i32 %89, 0
  br i1 %.not62, label %90, label %92

90:                                               ; preds = %88
  %.0..0..0..0.21 = load volatile ptr, ptr %10, align 8
  %.not63 = icmp eq ptr %.0..0..0..0.21, null
  br i1 %.not63, label %92, label %91

91:                                               ; preds = %90
  %.0..0..0..0.22 = load volatile ptr, ptr %10, align 8
  call void @except_rethrow(ptr noundef %.0..0..0..0.22) #13
  unreachable

92:                                               ; preds = %90, %88
  %93 = getelementptr inbounds nuw i8, ptr %13, i64 40
  %94 = load volatile ptr, ptr %93, align 8
  call void @except_free(ptr noundef %94) #10
  %95 = call ptr @except_pop() #10
  br label %96

96:                                               ; preds = %33, %92, %28
  ret void
}